target datalayout = "e-m:e-p270:32:32-p271:32:32-p272:64:64-i64:64-i128:128-f80:128-n8:16:32:64-S128"
target triple = "x86_64-pc-linux-gnu"

; Function Attrs: mustprogress nounwind uwtable
define dso_local noundef ptr @_ZNSt3__15alignEmmRPvRm(i64 noundef %0, i64 noundef %1, ptr noundef nonnull align 8 dereferenceable(8) %2, ptr noundef nonnull align 8 dereferenceable(8) %3) #1 {
  %5 = alloca i64, align 8
  %6 = alloca i64, align 8
  %7 = alloca ptr, align 8
  %8 = alloca ptr, align 8
  %9 = alloca ptr, align 8
  %10 = alloca ptr, align 8
  %11 = alloca ptr, align 8
  %12 = alloca i64, align 8
  store i64 %0, ptr %5, align 8, !tbaa !16
  store i64 %1, ptr %6, align 8, !tbaa !16
  store ptr %2, ptr %7, align 8, !tbaa !38
  store ptr %3, ptr %8, align 8, !tbaa !14
  call void @llvm.lifetime.start.p0(i64 8, ptr %9) #8
  store ptr null, ptr %9, align 8, !tbaa !34
  %13 = load i64, ptr %6, align 8, !tbaa !16
  %14 = load ptr, ptr %8, align 8, !tbaa !14
  %15 = load i64, ptr %14, align 8, !tbaa !16
  %16 = icmp ule i64 %13, %15
  br i1 %16, label %17, label %49

17:                                               ; preds = %4
  call void @llvm.lifetime.start.p0(i64 8, ptr %10) #8
  %18 = load ptr, ptr %7, align 8, !tbaa !38
  %19 = load ptr, ptr %18, align 8, !tbaa !34
  store ptr %19, ptr %10, align 8, !tbaa !40
  call void @llvm.lifetime.start.p0(i64 8, ptr %11) #8
  %20 = load ptr, ptr %10, align 8, !tbaa !40
  %21 = load i64, ptr %5, align 8, !tbaa !16
  %22 = sub i64 %21, 1
  %23 = getelementptr inbounds nuw i8, ptr %20, i64 %22
  %24 = ptrtoint ptr %23 to i64
  %25 = load i64, ptr %5, align 8, !tbaa !16
  %26 = sub i64 0, %25
  %27 = and i64 %24, %26
  %28 = inttoptr i64 %27 to ptr
  store ptr %28, ptr %11, align 8, !tbaa !40
  call void @llvm.lifetime.start.p0(i64 8, ptr %12) #8
  %29 = load ptr, ptr %11, align 8, !tbaa !40
  %30 = load ptr, ptr %10, align 8, !tbaa !40
  %31 = ptrtoint ptr %29 to i64
  %32 = ptrtoint ptr %30 to i64
  %33 = sub i64 %31, %32
  store i64 %33, ptr %12, align 8, !tbaa !16
  %34 = load i64, ptr %12, align 8, !tbaa !16
  %35 = load ptr, ptr %8, align 8, !tbaa !14
  %36 = load i64, ptr %35, align 8, !tbaa !16
  %37 = load i64, ptr %6, align 8, !tbaa !16
  %38 = sub i64 %36, %37
  %39 = icmp ule i64 %34, %38
  br i1 %39, label %40, label %48

40:                                               ; preds = %17
  %41 = load ptr, ptr %11, align 8, !tbaa !40
  store ptr %41, ptr %9, align 8, !tbaa !34
  %42 = load ptr, ptr %9, align 8, !tbaa !34
  %43 = load ptr, ptr %7, align 8, !tbaa !38
  store ptr %42, ptr %43, align 8, !tbaa !34
  %44 = load i64, ptr %12, align 8, !tbaa !16
  %45 = load ptr, ptr %8, align 8, !tbaa !14
  %46 = load i64, ptr %45, align 8, !tbaa !16
  %47 = sub i64 %46, %44
  store i64 %47, ptr %45, align 8, !tbaa !16
  br label %48

48:                                               ; preds = %40, %17
  call void @llvm.lifetime.end.p0(i64 8, ptr %12) #8
  call void @llvm.lifetime.end.p0(i64 8, ptr %11) #8
  call void @llvm.lifetime.end.p0(i64 8, ptr %10) #8
  br label %49

49:                                               ; preds = %48, %4
  %50 = load ptr, ptr %9, align 8, !tbaa !34
  call void @llvm.lifetime.end.p0(i64 8, ptr %9) #8
  ret ptr %50
}