; Function Attrs: mustprogress nofree norecurse nosync nounwind willreturn memory(argmem: readwrite) uwtable
define dso_local noundef ptr @_ZNSt3__15alignEmmRPvRm(i64 noundef %0, i64 noundef %1, ptr noundef nonnull align 8 captures(none) dereferenceable(8) %2, ptr noundef nonnull align 8 captures(none) dereferenceable(8) %3) local_unnamed_addr #10 {
  %5 = load i64, ptr %3, align 8, !tbaa !13
  %.not = icmp ugt i64 %1, %5
  br i1 %.not, label %19, label %6

6:                                                ; preds = %4
  %7 = load ptr, ptr %2, align 8, !tbaa !15
  %8 = getelementptr i8, ptr %7, i64 %0
  %9 = getelementptr i8, ptr %8, i64 -1
  %10 = ptrtoint ptr %9 to i64
  %11 = sub i64 0, %0
  %12 = and i64 %10, %11
  %13 = ptrtoint ptr %7 to i64
  %14 = sub i64 %12, %13
  %15 = sub nuw i64 %5, %1
  %.not19 = icmp ugt i64 %14, %15
  br i1 %.not19, label %19, label %16

16:                                               ; preds = %6
  %17 = inttoptr i64 %12 to ptr
  store ptr %17, ptr %2, align 8, !tbaa !15
  %18 = sub i64 %5, %14
  store i64 %18, ptr %3, align 8, !tbaa !13
  br label %19

19:                                               ; preds = %6, %16, %4
  %.0 = phi ptr [ null, %4 ], [ %17, %16 ], [ null, %6 ]
  ret ptr %.0
}